(dp1
S'session'
p2
(dp3
S'picture'
p4
Vhttps://lh4.googleusercontent.com/-ezunOACPNTA/AAAAAAAAAAI/AAAAAAAAAK4/-Tny3LbKuY8/photo.jpg
p5
sS'_accessed_time'
p6
F1445758873.9459791
sS'email'
p7
Vzen.nayeem@gmail.com
p8
sS'_creation_time'
p9
F1445758575.6919811
sS'name'
p10
VNayeem Zen
p11
ss.